; Function Attrs: mustprogress nounwind uwtable
define hidden void @_ZN4cvc58internal6theory5arith6linear18ConstraintDatabase27deleteConstraintAndNegationEPNS3_10ConstraintE(ptr nocapture noundef nonnull readnone align 8 dereferenceable(488) %this, ptr noundef nonnull %c) local_unnamed_addr #5 align 2 {
entry:
  %d_negation.i = getelementptr inbounds i8, ptr %c, i64 88
  %0 = load ptr, ptr %d_negation.i, align 8
  tail call void @_ZN4cvc58internal6theory5arith6linear10ConstraintD2Ev(ptr noundef nonnull align 8 dereferenceable(145) %c) #24
  tail call void @_ZdlPv(ptr noundef nonnull %c) #27
  %isnull2 = icmp eq ptr %0, null
  br i1 %isnull2, label %delete.end4, label %delete.notnull3

delete.notnull3:                                  ; preds = %entry
  tail call void @_ZN4cvc58internal6theory5arith6linear10ConstraintD2Ev(ptr noundef nonnull align 8 dereferenceable(145) %0) #24
  tail call void @_ZdlPv(ptr noundef nonnull %0) #27
  br label %delete.end4

delete.end4:                                      ; preds = %delete.notnull3, %entry
  ret void
}